(lp0
(idata_structures
State
p1
(dp2
S'objects'
p3
(lp4
sS'line_num'
p5
I7
sS'is_return_state'
p6
I01
sS'globals'
p7
(lp8
sS'return_value'
p9
NsS'frames'
p10
(lp11
(idata_structures
Frame
p12
(dp13
S'variables'
p14
(lp15
ccopy_reg
_reconstructor
p16
(cdata_structures
Variable
p17
c__builtin__
object
p18
Ntp19
Rp20
(dp21
S'_Variable__raw_address'
p22
NsS'_Variable__raw_value'
p23
NsS'name'
p24
S'a'
p25
sS'reference'
p26
NsS'is_reference_type'
p27
I00
sS'value'
p28
S'5.88020709e-39'
p29
sS'is_return_value'
p30
I00
sS'address'
p31
S'0x7fffffffe038'
p32
sS'type'
p33
S'float'
p34
sS'value_string'
p35
g29
sbag16
(g17
g18
Ntp36
Rp37
(dp38
g22
Nsg23
Nsg24
S'b'
p39
sg26
Nsg27
I01
sg28
Nsg30
I00
sg31
S'0x7fffffffe030'
p40
sg33
S'std::string'
p41
sg35
S'0x0'
p42
sbasg24
Vmain
p43
sbasba(idata_structures
State
p44
(dp45
g3
(lp46
sg5
I8
sg6
I01
sg7
(lp47
sg9
Nsg10
(lp48
(idata_structures
Frame
p49
(dp50
g14
(lp51
g16
(g17
g18
Ntp52
Rp53
(dp54
g22
Nsg23
Nsg24
g25
sg26
Nsg27
I00
sg28
S'2.4000001'
p55
sg30
I00
sg31
S'0x7fffffffe038'
p56
sg33
S'float'
p57
sg35
g55
sbag16
(g17
g18
Ntp58
Rp59
(dp60
g22
Nsg23
Nsg24
g39
sg26
Nsg27
I01
sg28
Nsg30
I00
sg31
S'0x7fffffffe030'
p61
sg33
S'std::string'
p62
sg35
S'0x0'
p63
sbasg24
Vmain
p64
sbasba(idata_structures
State
p65
(dp66
g3
(lp67
g16
(cdata_structures
Object
p68
g18
Ntp69
Rp70
(dp71
g33
S'string'
p72
sS'members'
p73
(lp74
g16
(g17
g18
Ntp75
Rp76
(dp77
g22
Nsg23
Nsg24
S'b[0]'
p78
sg26
Nsg27
I00
sg28
S"'S'"
p79
sg30
I00
sg31
S'0x602028'
p80
sg33
S'char'
p81
sg35
g79
sbag16
(g17
g18
Ntp82
Rp83
(dp84
g22
Nsg23
Nsg24
S'b[1]'
p85
sg26
Nsg27
I00
sg28
S"'D'"
p86
sg30
I00
sg31
S'0x602029'
p87
sg33
S'char'
p88
sg35
g86
sbag16
(g17
g18
Ntp89
Rp90
(dp91
g22
Nsg23
Nsg24
S'b[2]'
p92
sg26
Nsg27
I00
sg28
S"'S'"
p93
sg30
I00
sg31
S'0x60202a'
p94
sg33
S'char'
p95
sg35
g93
sbag16
(g17
g18
Ntp96
Rp97
(dp98
g22
Nsg23
Nsg24
S'b[3]'
p99
sg26
Nsg27
I00
sg28
S"'D'"
p100
sg30
I00
sg31
S'0x60202b'
p101
sg33
S'char'
p102
sg35
g100
sbasg31
S'0x602028'
p103
sbasg5
I9
sg6
I01
sg7
(lp104
sg9
Nsg10
(lp105
(idata_structures
Frame
p106
(dp107
g14
(lp108
g16
(g17
g18
Ntp109
Rp110
(dp111
g22
Nsg23
Nsg24
g25
sg26
Nsg27
I00
sg28
S'2.4000001'
p112
sg30
I00
sg31
S'0x7fffffffe038'
p113
sg33
S'float'
p114
sg35
g112
sbag16
(g17
g18
Ntp115
Rp116
(dp117
g22
Nsg23
Nsg24
g39
sg26
g103
sg27
I01
sg28
Nsg30
I00
sg31
S'0x7fffffffe030'
p118
sg33
S'std::string'
p119
sg35
S'0x602028 "SDSD"'
p120
sbasg24
Vmain
p121
sbasba(idata_structures
State
p122
(dp123
g3
(lp124
sg5
I10
sg6
I01
sg7
(lp125
sg9
Nsg10
(lp126
(idata_structures
Frame
p127
(dp128
g14
(lp129
sg24
Vmain
p130
sbasba.