(lp0
(idata_structures
State
p1
(dp2
S'objects'
p3
(lp4
sS'line_num'
p5
I9
sS'is_return_state'
p6
I01
sS'globals'
p7
(lp8
sS'return_value'
p9
NsS'frames'
p10
(lp11
(idata_structures
Frame
p12
(dp13
S'variables'
p14
(lp15
ccopy_reg
_reconstructor
p16
(cdata_structures
Variable
p17
c__builtin__
object
p18
Ntp19
Rp20
(dp21
S'name'
p22
S'word'
p23
sS'reference'
p24
NsS'reference_address'
p25
NsS'value'
p26
NsS'is_return_value'
p27
I00
sS'address'
p28
S'0x7fffffffe020'
p29
sS'type'
p30
S'std::string'
p31
sbag16
(g17
g18
Ntp32
Rp33
(dp34
g22
S'i'
p35
sg24
Nsg25
Nsg26
S'4196256'
p36
sg27
I00
sg28
S'0x7fffffffe028'
p37
sg30
S'int'
p38
sbasg22
Vmain
p39
sbasba(idata_structures
State
p40
(dp41
g3
(lp42
g16
(cdata_structures
String
p43
g18
Ntp44
Rp45
(dp46
g30
S'string'
p47
sg22
S'word'
p48
sS'members'
p49
(lp50
g16
(g17
g18
Ntp51
Rp52
(dp53
g22
S'word[0]'
p54
sg24
Nsg25
Nsg26
S"'s'"
p55
sg27
I00
sg28
S'0x602028'
p56
sg30
S'char'
p57
sbag16
(g17
g18
Ntp58
Rp59
(dp60
g22
S'word[1]'
p61
sg24
Nsg25
Nsg26
S"'o'"
p62
sg27
I00
sg28
S'0x602029'
p63
sg30
S'char'
p64
sbag16
(g17
g18
Ntp65
Rp66
(dp67
g22
S'word[2]'
p68
sg24
Nsg25
Nsg26
S"'c'"
p69
sg27
I00
sg28
S'0x60202a'
p70
sg30
S'char'
p71
sbag16
(g17
g18
Ntp72
Rp73
(dp74
g22
S'word[3]'
p75
sg24
Nsg25
Nsg26
S"'c'"
p76
sg27
I00
sg28
S'0x60202b'
p77
sg30
S'char'
p78
sbag16
(g17
g18
Ntp79
Rp80
(dp81
g22
S'word[4]'
p82
sg24
Nsg25
Nsg26
S"'e'"
p83
sg27
I00
sg28
S'0x60202c'
p84
sg30
S'char'
p85
sbag16
(g17
g18
Ntp86
Rp87
(dp88
g22
S'word[5]'
p89
sg24
Nsg25
Nsg26
S"'r'"
p90
sg27
I00
sg28
S'0x60202d'
p91
sg30
S'char'
p92
sbasg28
S'0x602028'
p93
sbasg5
I11
sg6
I01
sg7
(lp94
sg9
Nsg10
(lp95
(idata_structures
Frame
p96
(dp97
g14
(lp98
g16
(g17
g18
Ntp99
Rp100
(dp101
g22
g48
sg24
g45
sg25
Nsg26
Nsg27
I00
sg28
S'0x7fffffffe020'
p102
sg30
S'std::string'
p103
sbag16
(g17
g18
Ntp104
Rp105
(dp106
g22
g35
sg24
Nsg25
Nsg26
S'4196256'
p107
sg27
I00
sg28
S'0x7fffffffe028'
p108
sg30
S'int'
p109
sbasg22
Vmain
p110
sbasba(idata_structures
State
p111
(dp112
g3
(lp113
g16
(g43
g18
Ntp114
Rp115
(dp116
g30
g47
sg22
S'word'
p117
sg49
(lp118
g16
(g17
g18
Ntp119
Rp120
(dp121
g22
S'word[0]'
p122
sg24
Nsg25
Nsg26
S"'s'"
p123
sg27
I00
sg28
S'0x602028'
p124
sg30
S'char'
p125
sbag16
(g17
g18
Ntp126
Rp127
(dp128
g22
S'word[1]'
p129
sg24
Nsg25
Nsg26
S"'o'"
p130
sg27
I00
sg28
S'0x602029'
p131
sg30
S'char'
p132
sbag16
(g17
g18
Ntp133
Rp134
(dp135
g22
S'word[2]'
p136
sg24
Nsg25
Nsg26
S"'c'"
p137
sg27
I00
sg28
S'0x60202a'
p138
sg30
S'char'
p139
sbag16
(g17
g18
Ntp140
Rp141
(dp142
g22
S'word[3]'
p143
sg24
Nsg25
Nsg26
S"'c'"
p144
sg27
I00
sg28
S'0x60202b'
p145
sg30
S'char'
p146
sbag16
(g17
g18
Ntp147
Rp148
(dp149
g22
S'word[4]'
p150
sg24
Nsg25
Nsg26
S"'e'"
p151
sg27
I00
sg28
S'0x60202c'
p152
sg30
S'char'
p153
sbag16
(g17
g18
Ntp154
Rp155
(dp156
g22
S'word[5]'
p157
sg24
Nsg25
Nsg26
S"'r'"
p158
sg27
I00
sg28
S'0x60202d'
p159
sg30
S'char'
p160
sbasg28
S'0x602028'
p161
sbasg5
I13
sg6
I01
sg7
(lp162
sg9
Nsg10
(lp163
(idata_structures
Frame
p164
(dp165
g14
(lp166
g16
(g17
g18
Ntp167
Rp168
(dp169
g22
g117
sg24
g115
sg25
Nsg26
Nsg27
I00
sg28
S'0x7fffffffe020'
p170
sg30
S'std::string'
p171
sbag16
(g17
g18
Ntp172
Rp173
(dp174
g22
g35
sg24
Nsg25
Nsg26
S'2'
p175
sg27
I00
sg28
S'0x7fffffffe028'
p176
sg30
S'int'
p177
sbasg22
Vmain
p178
sbasba(idata_structures
State
p179
(dp180
g3
(lp181
sg5
I14
sg6
I01
sg7
(lp182
sg9
Nsg10
(lp183
(idata_structures
Frame
p184
(dp185
g14
(lp186
sg22
Vmain
p187
sbasba.